; Function Attrs: mustprogress uwtable
define internal void @"_ZNSt17_Function_handlerIFN2cv3MatERKNS0_10GFrameDescERKNS0_10MediaFrame4ViewEEZN5GOCVY5Actor11extractRMatERKS5_RNS0_4RMatEE3$_4E9_M_invokeERKSt9_Any_dataS4_S8_"(ptr dead_on_unwind noalias nonnull writable sret(%"class.cv::Mat") align 8 %0, ptr nocapture nonnull readnone align 8 %1, ptr nocapture noundef nonnull readonly align 4 dereferenceable(12) %2, ptr nocapture noundef nonnull readonly align 8 dereferenceable(96) %3) #3 align 2 {
  %5 = getelementptr inbounds i8, ptr %2, i64 4
  %.val = load i64, ptr %5, align 4
  %.val3 = load ptr, ptr %3, align 8
  %6 = getelementptr inbounds i8, ptr %3, i64 32
  %.val4 = load i64, ptr %6, align 8
  tail call void @_ZN2cv3MatC1ENS_5Size_IiEEiPvm(ptr noundef nonnull align 8 dereferenceable(96) %0, i64 %.val, i32 noundef 0, ptr noundef %.val3, i64 noundef %.val4)
  ret void
}